target datalayout = "e-m:e-p270:32:32-p271:32:32-p272:64:64-i64:64-i128:128-f80:128-n8:16:32:64-S128"
target triple = "x86_64-pc-linux-gnu"

%struct.ident_t = type { i32, i32, i32, i32, ptr }

@1 = private unnamed_addr constant %struct.ident_t { i32 0, i32 514, i32 0, i32 22, ptr @0 }, align 8
@.gomp_critical_user_.reduction.var = common global [8 x i32] zeroinitializer, align 8
@3 = private unnamed_addr constant %struct.ident_t { i32 0, i32 18, i32 0, i32 22, ptr @0 }, align 8

; Function Attrs: norecurse nounwind uwtable
define internal void @_ZN12SparseMatrixIfE7SolveCGIfEEiRKS0_PKT_iPS4_S4_ibbi.omp_outlined.99(ptr noalias noundef %0, ptr noalias noundef %1, ptr noundef nonnull align 4 dereferenceable(4) %2, ptr noundef nonnull align 8 dereferenceable(8) %3, ptr noundef nonnull align 8 dereferenceable(8) %4, ptr noundef nonnull align 8 dereferenceable(8) %5, ptr noundef nonnull align 8 dereferenceable(8) %6) #17 {
  %8 = alloca ptr, align 8
  %9 = alloca ptr, align 8
  %10 = alloca ptr, align 8
  %11 = alloca ptr, align 8
  %12 = alloca ptr, align 8
  %13 = alloca ptr, align 8
  %14 = alloca ptr, align 8
  %15 = alloca i32, align 4
  %16 = alloca i32, align 4
  %17 = alloca i32, align 4
  %18 = alloca i32, align 4
  %19 = alloca i32, align 4
  %20 = alloca i32, align 4
  %21 = alloca i32, align 4
  %22 = alloca i32, align 4
  %23 = alloca double, align 8
  %24 = alloca i32, align 4
  %25 = alloca [1 x ptr], align 8
  store ptr %0, ptr %8, align 8
  store ptr %1, ptr %9, align 8
  store ptr %2, ptr %10, align 8
  store ptr %3, ptr %11, align 8
  store ptr %4, ptr %12, align 8
  store ptr %5, ptr %13, align 8
  store ptr %6, ptr %14, align 8
  %26 = load ptr, ptr %10, align 8
  %27 = load ptr, ptr %11, align 8
  %28 = load ptr, ptr %12, align 8
  %29 = load ptr, ptr %13, align 8
  %30 = load ptr, ptr %14, align 8
  %31 = load i32, ptr %26, align 4
  store i32 %31, ptr %16, align 4
  %32 = load i32, ptr %16, align 4
  %33 = sub nsw i32 %32, 0
  %34 = sdiv i32 %33, 1
  %35 = sub nsw i32 %34, 1
  store i32 %35, ptr %17, align 4
  store i32 0, ptr %18, align 4
  %36 = load i32, ptr %16, align 4
  %37 = icmp slt i32 0, %36
  br i1 %37, label %38, label %113

38:                                               ; preds = %7
  store i32 0, ptr %19, align 4
  %39 = load i32, ptr %17, align 4
  store i32 %39, ptr %20, align 4
  store i32 1, ptr %21, align 4
  store i32 0, ptr %22, align 4
  store double 0.000000e+00, ptr %23, align 8
  %40 = load ptr, ptr %8, align 8
  %41 = load i32, ptr %40, align 4
  call void @__kmpc_for_static_init_4(ptr @1, i32 %41, i32 34, ptr %22, ptr %19, ptr %20, ptr %21, i32 1, i32 1)
  %42 = load i32, ptr %20, align 4
  %43 = load i32, ptr %17, align 4
  %44 = icmp sgt i32 %42, %43
  br i1 %44, label %45, label %47

45:                                               ; preds = %38
  %46 = load i32, ptr %17, align 4
  br label %49

47:                                               ; preds = %38
  %48 = load i32, ptr %20, align 4
  br label %49

49:                                               ; preds = %47, %45
  %50 = phi i32 [ %46, %45 ], [ %48, %47 ]
  store i32 %50, ptr %20, align 4
  %51 = load i32, ptr %19, align 4
  store i32 %51, ptr %15, align 4
  br label %52

52:                                               ; preds = %94, %49
  %53 = load i32, ptr %15, align 4
  %54 = load i32, ptr %20, align 4
  %55 = icmp sle i32 %53, %54
  br i1 %55, label %56, label %97

56:                                               ; preds = %52
  %57 = load i32, ptr %15, align 4
  %58 = mul nsw i32 %57, 1
  %59 = add nsw i32 0, %58
  store i32 %59, ptr %24, align 4
  %60 = load ptr, ptr %29, align 8
  %61 = load i32, ptr %24, align 4
  %62 = sext i32 %61 to i64
  %63 = getelementptr inbounds float, ptr %60, i64 %62
  %64 = load float, ptr %63, align 4
  %65 = load ptr, ptr %28, align 8
  %66 = load i32, ptr %24, align 4
  %67 = sext i32 %66 to i64
  %68 = getelementptr inbounds float, ptr %65, i64 %67
  %69 = load float, ptr %68, align 4
  %70 = fsub float %64, %69
  %71 = load ptr, ptr %28, align 8
  %72 = load i32, ptr %24, align 4
  %73 = sext i32 %72 to i64
  %74 = getelementptr inbounds float, ptr %71, i64 %73
  store float %70, ptr %74, align 4
  %75 = load ptr, ptr %27, align 8
  %76 = load i32, ptr %24, align 4
  %77 = sext i32 %76 to i64
  %78 = getelementptr inbounds float, ptr %75, i64 %77
  store float %70, ptr %78, align 4
  %79 = load ptr, ptr %28, align 8
  %80 = load i32, ptr %24, align 4
  %81 = sext i32 %80 to i64
  %82 = getelementptr inbounds float, ptr %79, i64 %81
  %83 = load float, ptr %82, align 4
  %84 = load ptr, ptr %28, align 8
  %85 = load i32, ptr %24, align 4
  %86 = sext i32 %85 to i64
  %87 = getelementptr inbounds float, ptr %84, i64 %86
  %88 = load float, ptr %87, align 4
  %89 = fmul float %83, %88
  %90 = fpext float %89 to double
  %91 = load double, ptr %23, align 8
  %92 = fadd double %91, %90
  store double %92, ptr %23, align 8
  br label %93

93:                                               ; preds = %56
  br label %94

94:                                               ; preds = %93
  %95 = load i32, ptr %15, align 4
  %96 = add nsw i32 %95, 1
  store i32 %96, ptr %15, align 4
  br label %52

97:                                               ; preds = %52
  br label %98

98:                                               ; preds = %97
  %99 = load ptr, ptr %8, align 8
  %100 = load i32, ptr %99, align 4
  call void @__kmpc_for_static_fini(ptr @1, i32 %100)
  %101 = getelementptr inbounds [1 x ptr], ptr %25, i64 0, i64 0
  store ptr %23, ptr %101, align 8
  %102 = load ptr, ptr %8, align 8
  %103 = load i32, ptr %102, align 4
  %104 = call i32 @__kmpc_reduce_nowait(ptr @3, i32 %103, i32 1, i64 8, ptr %25, ptr @_ZN12SparseMatrixIfE7SolveCGIfEEiRKS0_PKT_iPS4_S4_ibbi.omp_outlined.99.omp.reduction.reduction_func, ptr @.gomp_critical_user_.reduction.var)
  switch i32 %104, label %112 [
    i32 1, label %105
    i32 2, label %109
  ]

105:                                              ; preds = %98
  %106 = load double, ptr %30, align 8
  %107 = load double, ptr %23, align 8
  %108 = fadd double %106, %107
  store double %108, ptr %30, align 8
  call void @__kmpc_end_reduce_nowait(ptr @3, i32 %103, ptr @.gomp_critical_user_.reduction.var)
  br label %112

109:                                              ; preds = %98
  %110 = load double, ptr %23, align 8
  %111 = atomicrmw fadd ptr %30, double %110 monotonic, align 8
  br label %112

112:                                              ; preds = %109, %105, %98
  br label %113

113:                                              ; preds = %112, %7
  ret void
}